# file opened: main.asm
  1   0000
  2   0000
  3   0000              	DEFS 0x0000
  4   0000              	; Simple node
  5   0000 E5           	PUSH HL
  6   0001 23           	INC HL
  7   0002 78           	LD A,B
  8   0003 3C           	INC A
  9   0004 77           	LD (HL),A
 10   0005 E1           	POP HL
 11   0006 C9           	RET
 12   0007
 13   0007
 14   0007 00 00 00...  	DEFS 0x0100-$
 15   0100              	; 1 branch
 16   0100 3E 05        	LD A,5
 17   0102 B8           	CP B
 18   0103 28 02        	JR Z,L1
 19   0105
 20   0105 ED 44        	NEG
 21   0107
 22   0107              L1:
 23   0107 C9           	RET
 24   0108
 25   0108
 26   0108 00 00 00...  	DEFS 0x0700-$
 27   0700              	; 2 calls, same sub
 28   0700 3E 05        	LD A,5
 29   0702 CD 09 07     	CALL SUB2
 30   0705
 31   0705 CD 09 07     	CALL SUB2
 32   0708
 33   0708 C9           	RET
 34   0709              SUB2:
 35   0709 C6 02        	ADD A,2
 36   070B C9           	RET
 37   070C
 38   070C
 39   070C
 40   070C 00 00 00...  	DEFS 0x1000-$
 41   1000              	; self modifying label in sub
 42   1000 3E 06        	LD A,6
 43   1002 32 0B 10     	LD (LBL_SELF_MOD+1),A
 44   1005 CD 09 10     	CALL SUB_1009
 45   1008
 46   1008 C9           	RET
 47   1009
 48   1009              SUB_1009:
 49   1009 00           	NOP
 50   100A              LBL_SELF_MOD:
 51   100A 0E 07        	LD C,7
 52   100C C9           	RET
 53   100D
 54   100D
 55   100D 00 00 00...  	DEFS 0x1100-$
 56   1100              	; self modifying label at sub
 57   1100 3E 06        	LD A,6
 58   1102 32 0A 11     	LD (SUB_1109+1),A
 59   1105 CD 09 11     	CALL SUB_1109
 60   1108
 61   1108 C9           	RET
 62   1109
 63   1109              SUB_1109:
 64   1109 0E 07        	LD C,7
 65   110B C9           	RET
 66   110C
 67   110C
 68   110C 00 00 00...  	DEFS 0x1200-$
 69   1200              	; self modifying label wo sub
 70   1200 3E 06        	LD A,6
 71   1202 32 07 12     	LD (LBL2_SELF_MOD+1),A
 72   1205 00           	NOP
 73   1206              LBL2_SELF_MOD:
 74   1206 0E 07        	LD C,7
 75   1208 C9           	RET
 76   1209
 77   1209
 78   1209 00 00 00...  	DEFS 0x1300-$
 79   1300              	; referencing data
 80   1300 3E 06        	LD A,6
 81   1302 2A 08 13     	LD HL,(LBL_DATA)
 82   1305 C3 0A 13     	JP LBL_CONT
 83   1308
 84   1308              LBL_DATA:
 85   1308 34 12        	DEFW 0x1234
 86   130A
 87   130A              LBL_CONT:
 88   130A 11 DE DE     	LD DE,0xDEDE
 89   130D C9           	RET
 90   130E
 91   130E
 92   130E
 93   130E
 94   130E 00 00 00...  	DEFS 0x4000-$
 95   4000              	; Depth
 96   4000 CD 04 40     	CALL SUB4004
 97   4003
 98   4003 C9           	RET
 99   4004
100   4004              SUB4004:
101   4004 CD 08 40     	CALL SUB4008
102   4007
103   4007 C9           	RET
104   4008
105   4008              SUB4008:
106   4008 CD 0C 40     	CALL SUB400C
107   400B
108   400B C9           	RET
109   400C
110   400C              SUB400C:
111   400C C9           	RET
112   400D
113   400D
114   400D 00 00 00...  	DEFS 0x4100-$
115   4100              	; Depth 4, different call order
116   4100 CD 08 41     	CALL SUB4108
117   4103
118   4103 C9           	RET
119   4104
120   4104              SUB4104:
121   4104 CD 0C 41     	CALL SUB410C
122   4107
123   4107 C9           	RET
124   4108
125   4108              SUB4108:
126   4108 CD 04 41     	CALL SUB4104
127   410B
128   410B C9           	RET
129   410C
130   410C              SUB410C:
131   410C C9           	RET
132   410D
133   410D
134   410D 00 00 00...  	DEFS 0x4200-$
135   4200              	; recursive
136   4200 CD 04 42     	CALL SUB4204
137   4203
138   4203 C9           	RET
139   4204
140   4204              SUB4204:
141   4204 CD 04 42     	CALL SUB4204
142   4207
143   4207 C9           	RET
144   4208
145   4208
146   4208 00 00 00...  	DEFS 0x4300-$
147   4300              	; partly same branch
148   4300 CD 07 43     	CALL SUB4307
149   4303
150   4303 CD 09 43     	CALL SUB4309
151   4306
152   4306 C9           	RET
153   4307
154   4307              SUB4307:
155   4307 3E 05        	LD A,5
156   4309
157   4309              SUB4309:
158   4309 C9           	RET
159   430A
160   430A
161   430A
162   430A 00 00 00...  	DEFS 0x5000-$
163   5000              	; code and data, no reference
164   5000
165   5000              DATA5000:
166   5000 7F           	DEFB 0x7F
167   5001
168   5001 CD 07 50     	CALL SUB5007
169   5004
170   5004 C9           	RET
171   5005
172   5005 2B 1A        DATA5005:	DEFW 0x1A2B
173   5007
174   5007              SUB5007:
175   5007 00           	NOP
176   5008 C9           	RET
177   5009
178   5009
179   5009 00 00 00...  	DEFS 0x5100-$
180   5100              	; code and data
181   5100
182   5100              DATA5100:
183   5100 7F           	DEFB 0x7F
184   5101
185   5101 CD 07 51     	CALL SUB5107
186   5104
187   5104 C9           	RET
188   5105
189   5105 2B 1A        DATA5105:	DEFW 0x1A2B
190   5107
191   5107              SUB5107:
192   5107 3A 00 51     	LD A,(DATA5100)
193   510A 2A 05 51     	LD HL,(DATA5105)
194   510D ED 5B 20 51  	ld DE,(DATA5120)
195   5111 C9           	RET
196   5112
197   5112 00 00 00...  	DEFS 0x5120-$
198   5120 01 02 03 04  DATA5120:	DEFB 1, 2, 3, 4, 5, 6, 7, 8
198   5124 05 06 07 08
199   5128
# file closed: main.asm
