# file opened: main.asm
  1   0000
  2   0000              	DEFS 0x0000
  3   0000              	; Simple node
  4   0000 E5           	PUSH HL
  5   0001 23           	INC HL
  6   0002 78           	LD A,B
  7   0003 3C           	INC A
  8   0004 77           	LD (HL),A
  9   0005 E1           	POP HL
 10   0006 C9           	RET
 11   0007
 12   0007
 13   0007 00 00 00...  	DEFS 0x0100-$
 14   0100              	; 1 branch
 15   0100 3E 05        	LD A,5
 16   0102 B8           	CP B
 17   0103 28 02        	JR Z,L1
 18   0105
 19   0105 ED 44        	NEG
 20   0107
 21   0107              L1:
 22   0107 C9           	RET
 23   0108
 24   0108
 25   0108 00 00 00...  	DEFS 0x0200-$
 26   0200              	; JR after RET
 27   0200 3E 05        	LD A,5
 28   0202 B8           	CP B
 29   0203 28 04        	JR Z,L2
 30   0205
 31   0205 ED 44        	NEG
 32   0207 C9           	RET
 33   0208
 34   0208 00           	NOP
 35   0209
 36   0209              L2:
 37   0209 00           	NOP
 38   020A C9           	RET
 39   020B
 40   020B
 41   020B 00 00 00...  	DEFS 0x0300-$
 42   0300              	; LOOP
 43   0300 3E 0A        	LD A,10
 44   0302
 45   0302              LOOP1:
 46   0302 3D           	DEC A
 47   0303 20 FD        	JR NZ,LOOP1
 48   0305
 49   0305 C9           	RET
 50   0306
 51   0306
 52   0306 00 00 00...  	DEFS 0x0400-$
 53   0400              	; LOOP self
 54   0400              LOOP2:
 55   0400 3D           	DEC A
 56   0401 20 FD        	JR NZ,LOOP2
 57   0403
 58   0403 C9           	RET
 59   0404
 60   0404
 61   0404 00 00 00...  	DEFS 0x0500-$
 62   0500              	; 2 subs, same block
 63   0500 3E 05        	LD A,5
 64   0502
 65   0502              L3:
 66   0502 ED 44        	NEG
 67   0504 C9           	RET
 68   0505
 69   0505 00 00 00...  	DEFS 0x0520-$
 70   0520 3E 06        	LD A,6
 71   0522 C3 02 05     	JP L3
 72   0525
 73   0525
 74   0525 00 00 00...  	DEFS 0x0600-$
 75   0600              	; Simple call
 76   0600 3E 05        	LD A,5
 77   0602 CD 06 06     	CALL SUB1
 78   0605
 79   0605 C9           	RET
 80   0606              SUB1:
 81   0606 C6 02        	ADD A,2
 82   0608 C9           	RET
 83   0609
 84   0609
 85   0609 00 00 00...  	DEFS 0x0700-$
 86   0700              	; 2 calls, same sub
 87   0700 3E 05        	LD A,5
 88   0702 CD 09 07     	CALL SUB2
 89   0705
 90   0705 CD 09 07     	CALL SUB2
 91   0708
 92   0708 C9           	RET
 93   0709              SUB2:
 94   0709 C6 02        	ADD A,2
 95   070B C9           	RET
 96   070C
 97   070C
 98   070C 00 00 00...  	DEFS 0x0800-$
 99   0800              	; Recuvrsive call
100   0800              SUB_REC:
101   0800 FE 00        	CP 0
102   0802 C8           	RET Z
103   0803
104   0803 3D           	DEC A
105   0804 CD 00 08     	CALL SUB_REC
106   0807
107   0807 C9           	RET
108   0808
109   0808
110   0808 00 00 00...  	DEFS 0x0900-$
111   0900              	; Subroutine inside subroutine
112   0900 3E 05        	LD A,5
113   0902
114   0902              SUB3:
115   0902 3C           	INC A
116   0903 C9           	RET
117   0904
118   0904
119   0904 00 00 00...  	DEFS 0x0920-$
120   0920 CD 02 09     	CALL SUB3
121   0923
122   0923 C9           	RET
123   0924
124   0924
125   0924 00 00 00...  	DEFS 0x0A00-$
126   0A00 00           	NOP
127   0A01
128   0A01 18 FE        	JR $
129   0A03
# file closed: main.asm
