# file opened: main.asm
  1   0000
  2   0000              	DEFS 0x0000
  3   0000              	; Simple block
  4   0000 E5           	PUSH HL
  5   0001 23           	INC HL
  6   0002 78           	LD A,B
  7   0003 3C           	INC A
  8   0004 77           	LD (HL),A
  9   0005 E1           	POP HL
 10   0006 C9           	RET
 11   0007
 12   0007
 13   0007 00 00 00...  	DEFS 0x0100-$
 14   0100              	; 1 branch, global label
 15   0100 3E 05        	LD A,5
 16   0102 B8           	CP B
 17   0103 28 02        	JR Z,LBL_0107
 18   0105
 19   0105 ED 44        	NEG
 20   0107
 21   0107              LBL_0107:
 22   0107 C9           	RET
 23   0108
 24   0108 00 00 00...  	DEFS 0x0180-$
 25   0180              	; 1 branch, local label
 26   0180 CD 84 01     	CALL SUB_0184
 27   0183 C9           	RET
 28   0184
 29   0184              SUB_0184:
 30   0184 3E 05        	LD A,5
 31   0186 B8           	CP B
 32   0187 28 02        	JR Z,.LL1
 33   0189
 34   0189 ED 44        	NEG
 35   018B
 36   018B              .LL1:
 37   018B C9           	RET
 38   018C
 39   018C
 40   018C 00 00 00...  	DEFS 0x0200-$
 41   0200              	; JR after RET
 42   0200 3E 05        	LD A,5
 43   0202 B8           	CP B
 44   0203 28 04        	JR Z,SSUB_0209
 45   0205
 46   0205 ED 44        	NEG
 47   0207 C9           	RET
 48   0208
 49   0208 00           	NOP
 50   0209
 51   0209              SSUB_0209:
 52   0209 00           	NOP
 53   020A C9           	RET
 54   020B
 55   020B
 56   020B 00 00 00...  	DEFS 0x0280-$
 57   0280              	; JR after RET, sub
 58   0280 CD 84 02     	CALL SSUB_0284
 59   0283 C9           	RET
 60   0284
 61   0284              SSUB_0284:
 62   0284 3E 05        	LD A,5
 63   0286 B8           	CP B
 64   0287 28 04        	JR Z,SSUB_028D
 65   0289
 66   0289 ED 44        	NEG
 67   028B C9           	RET
 68   028C
 69   028C 00           	NOP
 70   028D
 71   028D              SSUB_028D:
 72   028D 00           	NOP
 73   028E C9           	RET
 74   028F
 75   028F
 76   028F 00 00 00...  	DEFS 0x0300-$
 77   0300              	; Sub in sub
 78   0300 CD 07 03     	CALL SSUB_0307
 79   0303 CD 09 03     	CALL SSUB_0309
 80   0306 C9           	RET
 81   0307
 82   0307              SSUB_0307:
 83   0307 3E 05        	LD A,5
 84   0309              SSUB_0309:
 85   0309 3C           	INC A
 86   030A C9           	RET
 87   030B
 88   030B
 89   030B
 90   030B 00 00 00...  	DEFS 0x0400-$
 91   0400              	; Complex jumping
 92   0400 CD 04 04     	CALL SSUB_0404
 93   0403 C9           	RET
 94   0404
 95   0404              SSUB_0404:
 96   0404 3E 05        	LD A,5
 97   0406 CA 0C 04     	JP Z,.LL2
 98   0409
 99   0409 C9           	RET
100   040A
101   040A              .LL1:
102   040A 00           	NOP
103   040B C9           	RET
104   040C
105   040C              .LL2:
106   040C DA 0A 04     	JP C,.LL1
107   040F
108   040F ED 44        	NEG
109   0411 C9           	RET
110   0412
111   0412
112   0412 00 00 00...  	DEFS 0x0500-$
113   0500              	; 2 subs, sharing block
114   0500 CD 07 05     	CALL SSUB_0507
115   0503 CD 20 05     	CALL SSUB_0520
116   0506 C9           	RET
117   0507
118   0507              SSUB_0507:
119   0507 3E 05        	LD A,5
120   0509
121   0509              .LL1:
122   0509 ED 44        	NEG
123   050B C9           	RET
124   050C
125   050C 00 00 00...  	DEFS 0x0520-$
126   0520              SSUB_0520:
127   0520 3E 06        	LD A,6
128   0522 C3 09 05     	JP SSUB_0507.LL1
129   0525
130   0525
131   0525 00 00 00...  	DEFS 0x0600-$
132   0600              	; Loop
133   0600 CD 04 06     	CALL SSUB_0604
134   0603 C9           	RET
135   0604
136   0604              SSUB_0604:
137   0604 3E 05        	LD A,5
138   0606
139   0606              .LLOOP:
140   0606 3C           	INC A
141   0607 10 FD        	DJNZ .LLOOP
142   0609
143   0609 C9           	RET
144   060A
145   060A
146   060A 00 00 00...  	DEFS 0x0700-$
147   0700              	; Nested loops
148   0700 CD 04 07     	CALL SSUB_0704
149   0703 C9           	RET
150   0704
151   0704              SSUB_0704:
152   0704 3E 05        	LD A,5
153   0706
154   0706              .LLOOP1:
155   0706 23           	INC HL
156   0707
157   0707              .LLOOP2:
158   0707 13           	INC DE
159   0708 10 FD        	DJNZ .LLOOP2
160   070A
161   070A 3D           	DEC A
162   070B 20 F9        	JR NZ,.LLOOP1
163   070D
164   070D C9           	RET
165   070E
166   070E
167   070E 00 00 00...  	DEFS 0x0800-$
168   0800              	; Nested loops, same label
169   0800 CD 04 08     	CALL SSUB_0804
170   0803 C9           	RET
171   0804
172   0804              SSUB_0804:
173   0804 3E 05        	LD A,5
174   0806
175   0806              .LLOOP:
176   0806 23           	INC HL
177   0807 13           	INC DE
178   0808 10 FC        	DJNZ .LLOOP
179   080A
180   080A 3D           	DEC A
181   080B 20 F9        	JR NZ,.LLOOP
182   080D
183   080D C9           	RET
184   080E
185   080E
186   080E 00 00 00...  	DEFS 0x1000-$
187   1000              	; Recursive call
188   1000              SUB_REC:
189   1000 FE 00        	CP 0
190   1002 C8           	RET Z
191   1003
192   1003 3D           	DEC A
193   1004 CD 00 10     	CALL SUB_REC
194   1007
195   1007 C9           	RET
196   1008
197   1008
198   1008 00 00 00...  	DEFS 0x1100-$
199   1100              	; JP
200   1100 CD 04 11     	CALL SUB_1104
201   1103 C9           	RET
202   1104
203   1104              SUB_1104:
204   1104 3E 05        	LD A,5
205   1106 C3 09 11     	JP .LL1
206   1109              .LL1:
207   1109 C9           	RET
208   110A
209   110A
210   110A 00 00 00...  	DEFS 0x1200-$
211   1200 00           	NOP
212   1201
213   1201              LLB_1201:
214   1201 18 FE        	JR $
215   1203
216   1203
217   1203 00 00 00...  	DEFS 0x1300-$
218   1300 CD 04 13     	CALL SSUB_1304
219   1303 C9           	RET
220   1304
221   1304              SSUB_1304:
222   1304 00           	NOP
223   1305
224   1305              .LLOOP:
225   1305 18 FE        	JR $	; LLOOP
226   1307
# file closed: main.asm
